target datalayout = "e-m:e-p270:32:32-p271:32:32-p272:64:64-i64:64-i128:128-f80:128-n8:16:32:64-S128"
target triple = "x86_64-pc-linux-gnu"

%struct.ct_data_s = type { %union.anon, %union.anon.0 }
%union.anon = type { i16 }
%union.anon.0 = type { i16 }
%struct.internal_state = type { ptr, i32, ptr, i64, ptr, i64, i32, ptr, i64, i8, i32, i32, i32, i32, ptr, i64, ptr, ptr, i32, i32, i32, i32, i32, i64, i32, i32, i32, i32, i32, i32, i32, i32, i32, i32, i32, i32, i32, [573 x %struct.ct_data_s], [61 x %struct.ct_data_s], [39 x %struct.ct_data_s], %struct.tree_desc_s, %struct.tree_desc_s, %struct.tree_desc_s, [16 x i16], [573 x i32], i32, i32, [573 x i8], ptr, i32, i32, i32, i64, i64, i32, i32, i16, i32, i64 }
%struct.tree_desc_s = type { ptr, i32, ptr }

; Function Attrs: nounwind uwtable
define dso_local i32 @cm_zlib__tr_tally(ptr noundef %0, i32 noundef %1, i32 noundef %2) #0 {
  %4 = alloca ptr, align 8
  %5 = alloca i32, align 4
  %6 = alloca i32, align 4
  store ptr %0, ptr %4, align 8
  store i32 %1, ptr %5, align 4
  store i32 %2, ptr %6, align 4
  %7 = load i32, ptr %5, align 4
  %8 = trunc i32 %7 to i8
  %9 = load ptr, ptr %4, align 8
  %10 = getelementptr inbounds %struct.internal_state, ptr %9, i32 0, i32 48
  %11 = load ptr, ptr %10, align 8
  %12 = load ptr, ptr %4, align 8
  %13 = getelementptr inbounds %struct.internal_state, ptr %12, i32 0, i32 50
  %14 = load i32, ptr %13, align 4
  %15 = add i32 %14, 1
  store i32 %15, ptr %13, align 4
  %16 = zext i32 %14 to i64
  %17 = getelementptr inbounds i8, ptr %11, i64 %16
  store i8 %8, ptr %17, align 1
  %18 = load i32, ptr %5, align 4
  %19 = lshr i32 %18, 8
  %20 = trunc i32 %19 to i8
  %21 = load ptr, ptr %4, align 8
  %22 = getelementptr inbounds %struct.internal_state, ptr %21, i32 0, i32 48
  %23 = load ptr, ptr %22, align 8
  %24 = load ptr, ptr %4, align 8
  %25 = getelementptr inbounds %struct.internal_state, ptr %24, i32 0, i32 50
  %26 = load i32, ptr %25, align 4
  %27 = add i32 %26, 1
  store i32 %27, ptr %25, align 4
  %28 = zext i32 %26 to i64
  %29 = getelementptr inbounds i8, ptr %23, i64 %28
  store i8 %20, ptr %29, align 1
  %30 = load i32, ptr %6, align 4
  %31 = trunc i32 %30 to i8
  %32 = load ptr, ptr %4, align 8
  %33 = getelementptr inbounds %struct.internal_state, ptr %32, i32 0, i32 48
  %34 = load ptr, ptr %33, align 8
  %35 = load ptr, ptr %4, align 8
  %36 = getelementptr inbounds %struct.internal_state, ptr %35, i32 0, i32 50
  %37 = load i32, ptr %36, align 4
  %38 = add i32 %37, 1
  store i32 %38, ptr %36, align 4
  %39 = zext i32 %37 to i64
  %40 = getelementptr inbounds i8, ptr %34, i64 %39
  store i8 %31, ptr %40, align 1
  %41 = load i32, ptr %5, align 4
  %42 = icmp eq i32 %41, 0
  br i1 %42, label %43, label %52

43:                                               ; preds = %3
  %44 = load ptr, ptr %4, align 8
  %45 = getelementptr inbounds %struct.internal_state, ptr %44, i32 0, i32 37
  %46 = load i32, ptr %6, align 4
  %47 = zext i32 %46 to i64
  %48 = getelementptr inbounds [573 x %struct.ct_data_s], ptr %45, i64 0, i64 %47
  %49 = getelementptr inbounds %struct.ct_data_s, ptr %48, i32 0, i32 0
  %50 = load i16, ptr %49, align 4
  %51 = add i16 %50, 1
  store i16 %51, ptr %49, align 4
  br label %98

52:                                               ; preds = %3
  %53 = load ptr, ptr %4, align 8
  %54 = getelementptr inbounds %struct.internal_state, ptr %53, i32 0, i32 54
  %55 = load i32, ptr %54, align 8
  %56 = add i32 %55, 1
  store i32 %56, ptr %54, align 8
  %57 = load i32, ptr %5, align 4
  %58 = add i32 %57, -1
  store i32 %58, ptr %5, align 4
  %59 = load ptr, ptr %4, align 8
  %60 = getelementptr inbounds %struct.internal_state, ptr %59, i32 0, i32 37
  %61 = load i32, ptr %6, align 4
  %62 = zext i32 %61 to i64
  %63 = getelementptr inbounds [256 x i8], ptr @cm_zlib__length_code, i64 0, i64 %62
  %64 = load i8, ptr %63, align 1
  %65 = zext i8 %64 to i32
  %66 = add nsw i32 %65, 256
  %67 = add nsw i32 %66, 1
  %68 = sext i32 %67 to i64
  %69 = getelementptr inbounds [573 x %struct.ct_data_s], ptr %60, i64 0, i64 %68
  %70 = getelementptr inbounds %struct.ct_data_s, ptr %69, i32 0, i32 0
  %71 = load i16, ptr %70, align 4
  %72 = add i16 %71, 1
  store i16 %72, ptr %70, align 4
  %73 = load ptr, ptr %4, align 8
  %74 = getelementptr inbounds %struct.internal_state, ptr %73, i32 0, i32 38
  %75 = load i32, ptr %5, align 4
  %76 = icmp ult i32 %75, 256
  br i1 %76, label %77, label %83

77:                                               ; preds = %52
  %78 = load i32, ptr %5, align 4
  %79 = zext i32 %78 to i64
  %80 = getelementptr inbounds [512 x i8], ptr @cm_zlib__dist_code, i64 0, i64 %79
  %81 = load i8, ptr %80, align 1
  %82 = zext i8 %81 to i32
  br label %91

83:                                               ; preds = %52
  %84 = load i32, ptr %5, align 4
  %85 = lshr i32 %84, 7
  %86 = add i32 256, %85
  %87 = zext i32 %86 to i64
  %88 = getelementptr inbounds [512 x i8], ptr @cm_zlib__dist_code, i64 0, i64 %87
  %89 = load i8, ptr %88, align 1
  %90 = zext i8 %89 to i32
  br label %91

91:                                               ; preds = %83, %77
  %92 = phi i32 [ %82, %77 ], [ %90, %83 ]
  %93 = sext i32 %92 to i64
  %94 = getelementptr inbounds [61 x %struct.ct_data_s], ptr %74, i64 0, i64 %93
  %95 = getelementptr inbounds %struct.ct_data_s, ptr %94, i32 0, i32 0
  %96 = load i16, ptr %95, align 4
  %97 = add i16 %96, 1
  store i16 %97, ptr %95, align 4
  br label %98

98:                                               ; preds = %91, %43
  %99 = load ptr, ptr %4, align 8
  %100 = getelementptr inbounds %struct.internal_state, ptr %99, i32 0, i32 50
  %101 = load i32, ptr %100, align 4
  %102 = load ptr, ptr %4, align 8
  %103 = getelementptr inbounds %struct.internal_state, ptr %102, i32 0, i32 51
  %104 = load i32, ptr %103, align 8
  %105 = icmp eq i32 %101, %104
  %106 = zext i1 %105 to i32
  ret i32 %106
}