; Function Attrs: mustprogress nofree norecurse nosync nounwind willreturn memory(write, argmem: readwrite, inaccessiblemem: none) uwtable
define dso_local range(i32 0, 2) i32 @cm_zlib__tr_tally(ptr noundef captures(none) %0, i32 noundef %1, i32 noundef %2) local_unnamed_addr #3 {
  %4 = trunc i32 %1 to i8
  %5 = getelementptr inbounds nuw i8, ptr %0, i64 5888
  %6 = load ptr, ptr %5, align 8
  %7 = getelementptr inbounds nuw i8, ptr %0, i64 5900
  %8 = load i32, ptr %7, align 4
  %9 = add i32 %8, 1
  store i32 %9, ptr %7, align 4
  %10 = zext i32 %8 to i64
  %11 = getelementptr inbounds nuw i8, ptr %6, i64 %10
  store i8 %4, ptr %11, align 1
  %12 = lshr i32 %1, 8
  %13 = trunc i32 %12 to i8
  %14 = load ptr, ptr %5, align 8
  %15 = load i32, ptr %7, align 4
  %16 = add i32 %15, 1
  store i32 %16, ptr %7, align 4
  %17 = zext i32 %15 to i64
  %18 = getelementptr inbounds nuw i8, ptr %14, i64 %17
  store i8 %13, ptr %18, align 1
  %19 = trunc i32 %2 to i8
  %20 = load ptr, ptr %5, align 8
  %21 = load i32, ptr %7, align 4
  %22 = add i32 %21, 1
  store i32 %22, ptr %7, align 4
  %23 = zext i32 %21 to i64
  %24 = getelementptr inbounds nuw i8, ptr %20, i64 %23
  store i8 %19, ptr %24, align 1
  %25 = icmp eq i32 %1, 0
  br i1 %25, label %26, label %32

26:                                               ; preds = %3
  %27 = getelementptr inbounds nuw i8, ptr %0, i64 212
  %28 = zext i32 %2 to i64
  %29 = getelementptr inbounds nuw [573 x %struct.ct_data_s], ptr %27, i64 0, i64 %28
  %30 = load i16, ptr %29, align 4
  %31 = add i16 %30, 1
  store i16 %31, ptr %29, align 4
  br label %54

32:                                               ; preds = %3
  %33 = getelementptr inbounds nuw i8, ptr %0, i64 5928
  %34 = load i32, ptr %33, align 8
  %35 = add i32 %34, 1
  store i32 %35, ptr %33, align 8
  %36 = add i32 %1, -1
  %37 = getelementptr inbounds nuw i8, ptr %0, i64 212
  %38 = zext i32 %2 to i64
  %39 = getelementptr inbounds nuw [256 x i8], ptr @cm_zlib__length_code, i64 0, i64 %38
  %40 = load i8, ptr %39, align 1
  %41 = zext i8 %40 to i64
  %42 = add nuw nsw i64 %41, 257
  %43 = getelementptr inbounds nuw [573 x %struct.ct_data_s], ptr %37, i64 0, i64 %42
  %44 = load i16, ptr %43, align 4
  %45 = add i16 %44, 1
  store i16 %45, ptr %43, align 4
  %46 = getelementptr inbounds nuw i8, ptr %0, i64 2504
  %47 = icmp ult i32 %1, 257
  %48 = lshr i32 %36, 7
  %49 = add nuw nsw i32 %48, 256
  %.pn.in = select i1 %47, i32 %36, i32 %49
  %.pn = zext nneg i32 %.pn.in to i64
  %.in.in = getelementptr inbounds nuw [512 x i8], ptr @cm_zlib__dist_code, i64 0, i64 %.pn
  %.in = load i8, ptr %.in.in, align 1
  %50 = zext i8 %.in to i64
  %51 = getelementptr inbounds nuw [61 x %struct.ct_data_s], ptr %46, i64 0, i64 %50
  %52 = load i16, ptr %51, align 4
  %53 = add i16 %52, 1
  store i16 %53, ptr %51, align 4
  br label %54

54:                                               ; preds = %32, %26
  %55 = load i32, ptr %7, align 4
  %56 = getelementptr inbounds nuw i8, ptr %0, i64 5904
  %57 = load i32, ptr %56, align 8
  %58 = icmp eq i32 %55, %57
  %59 = zext i1 %58 to i32
  ret i32 %59
}